target datalayout = "e-m:e-p270:32:32-p271:32:32-p272:64:64-i64:64-i128:128-f80:128-n8:16:32:64-S128"
target triple = "x86_64-pc-linux-gnu"

%struct.Vec_Int_t_ = type { i32, i32, ptr }

; Function Attrs: nounwind uwtable
define internal void @Vec_IntFree(ptr noundef %0) #0 {
  %2 = alloca ptr, align 8
  store ptr %0, ptr %2, align 8
  %3 = load ptr, ptr %2, align 8
  %4 = getelementptr inbounds %struct.Vec_Int_t_, ptr %3, i32 0, i32 2
  %5 = load ptr, ptr %4, align 8
  %6 = icmp ne ptr %5, null
  br i1 %6, label %7, label %13

7:                                                ; preds = %1
  %8 = load ptr, ptr %2, align 8
  %9 = getelementptr inbounds %struct.Vec_Int_t_, ptr %8, i32 0, i32 2
  %10 = load ptr, ptr %9, align 8
  call void @free(ptr noundef %10) #13
  %11 = load ptr, ptr %2, align 8
  %12 = getelementptr inbounds %struct.Vec_Int_t_, ptr %11, i32 0, i32 2
  store ptr null, ptr %12, align 8
  br label %14

13:                                               ; preds = %1
  br label %14

14:                                               ; preds = %13, %7
  %15 = load ptr, ptr %2, align 8
  %16 = icmp ne ptr %15, null
  br i1 %16, label %17, label %19

17:                                               ; preds = %14
  %18 = load ptr, ptr %2, align 8
  call void @free(ptr noundef %18) #13
  store ptr null, ptr %2, align 8
  br label %20

19:                                               ; preds = %14
  br label %20

20:                                               ; preds = %19, %17
  ret void
}

; Function Attrs: nounwind uwtable
define internal i32 @Vec_IntSize(ptr noundef %0) #0 {
  %2 = alloca ptr, align 8
  store ptr %0, ptr %2, align 8
  %3 = load ptr, ptr %2, align 8
  %4 = getelementptr inbounds %struct.Vec_Int_t_, ptr %3, i32 0, i32 1
  %5 = load i32, ptr %4, align 4
  ret i32 %5
}

; Function Attrs: nounwind uwtable
define internal ptr @Vec_IntDup(ptr noundef %0) #0 {
  %2 = alloca ptr, align 8
  %3 = alloca ptr, align 8
  store ptr %0, ptr %2, align 8
  %4 = call noalias ptr @malloc(i64 noundef 16) #11
  store ptr %4, ptr %3, align 8
  %5 = load ptr, ptr %2, align 8
  %6 = getelementptr inbounds %struct.Vec_Int_t_, ptr %5, i32 0, i32 1
  %7 = load i32, ptr %6, align 4
  %8 = load ptr, ptr %3, align 8
  %9 = getelementptr inbounds %struct.Vec_Int_t_, ptr %8, i32 0, i32 1
  store i32 %7, ptr %9, align 4
  %10 = load ptr, ptr %2, align 8
  %11 = getelementptr inbounds %struct.Vec_Int_t_, ptr %10, i32 0, i32 1
  %12 = load i32, ptr %11, align 4
  %13 = load ptr, ptr %3, align 8
  %14 = getelementptr inbounds %struct.Vec_Int_t_, ptr %13, i32 0, i32 0
  store i32 %12, ptr %14, align 8
  %15 = load ptr, ptr %3, align 8
  %16 = getelementptr inbounds %struct.Vec_Int_t_, ptr %15, i32 0, i32 0
  %17 = load i32, ptr %16, align 8
  %18 = icmp ne i32 %17, 0
  br i1 %18, label %19, label %26

19:                                               ; preds = %1
  %20 = load ptr, ptr %3, align 8
  %21 = getelementptr inbounds %struct.Vec_Int_t_, ptr %20, i32 0, i32 0
  %22 = load i32, ptr %21, align 8
  %23 = sext i32 %22 to i64
  %24 = mul i64 4, %23
  %25 = call noalias ptr @malloc(i64 noundef %24) #11
  br label %27

26:                                               ; preds = %1
  br label %27

27:                                               ; preds = %26, %19
  %28 = phi ptr [ %25, %19 ], [ null, %26 ]
  %29 = load ptr, ptr %3, align 8
  %30 = getelementptr inbounds %struct.Vec_Int_t_, ptr %29, i32 0, i32 2
  store ptr %28, ptr %30, align 8
  %31 = load ptr, ptr %3, align 8
  %32 = getelementptr inbounds %struct.Vec_Int_t_, ptr %31, i32 0, i32 2
  %33 = load ptr, ptr %32, align 8
  %34 = load ptr, ptr %2, align 8
  %35 = getelementptr inbounds %struct.Vec_Int_t_, ptr %34, i32 0, i32 2
  %36 = load ptr, ptr %35, align 8
  %37 = load ptr, ptr %2, align 8
  %38 = getelementptr inbounds %struct.Vec_Int_t_, ptr %37, i32 0, i32 1
  %39 = load i32, ptr %38, align 4
  %40 = sext i32 %39 to i64
  %41 = mul i64 4, %40
  call void @llvm.memcpy.p0.p0.i64(ptr align 4 %33, ptr align 4 %36, i64 %41, i1 false)
  %42 = load ptr, ptr %3, align 8
  ret ptr %42
}

; Function Attrs: nounwind uwtable
define ptr @Acb_FindSupportMin(ptr noundef %0, i32 noundef %1, ptr noundef %2, ptr noundef %3, ptr noundef %4) #0 {
  %6 = alloca ptr, align 8
  %7 = alloca ptr, align 8
  %8 = alloca i32, align 4
  %9 = alloca ptr, align 8
  %10 = alloca ptr, align 8
  %11 = alloca ptr, align 8
  %12 = alloca ptr, align 8
  %13 = alloca ptr, align 8
  %14 = alloca i32, align 4
  store ptr %0, ptr %7, align 8
  store i32 %1, ptr %8, align 4
  store ptr %2, ptr %9, align 8
  store ptr %3, ptr %10, align 8
  store ptr %4, ptr %11, align 8
  %15 = load ptr, ptr %11, align 8
  %16 = call ptr @Vec_IntDup(ptr noundef %15)
  store ptr %16, ptr %13, align 8
  %17 = load ptr, ptr %13, align 8
  %18 = call i32 @Vec_IntSize(ptr noundef %17)
  %19 = sub nsw i32 %18, 1
  store i32 %19, ptr %14, align 4
  br label %20

20:                                               ; preds = %41, %5
  %21 = load i32, ptr %14, align 4
  %22 = icmp sge i32 %21, 0
  br i1 %22, label %23, label %44

23:                                               ; preds = %20
  %24 = load ptr, ptr %7, align 8
  %25 = load i32, ptr %8, align 4
  %26 = load ptr, ptr %9, align 8
  %27 = load ptr, ptr %10, align 8
  %28 = load ptr, ptr %13, align 8
  store ptr %28, ptr %12, align 8
  %29 = load i32, ptr %14, align 4
  %30 = call ptr @Acb_FindSupportMinOne(ptr noundef %24, i32 noundef %25, ptr noundef %26, ptr noundef %27, ptr noundef %28, i32 noundef %29)
  store ptr %30, ptr %13, align 8
  %31 = load ptr, ptr %12, align 8
  %32 = load ptr, ptr %13, align 8
  %33 = icmp ne ptr %31, %32
  br i1 %33, label %34, label %36

34:                                               ; preds = %23
  %35 = load ptr, ptr %12, align 8
  call void @Vec_IntFree(ptr noundef %35)
  br label %36

36:                                               ; preds = %34, %23
  %37 = load ptr, ptr %13, align 8
  %38 = icmp eq ptr %37, null
  br i1 %38, label %39, label %40

39:                                               ; preds = %36
  store ptr null, ptr %6, align 8
  br label %46

40:                                               ; preds = %36
  br label %41

41:                                               ; preds = %40
  %42 = load i32, ptr %14, align 4
  %43 = add nsw i32 %42, -1
  store i32 %43, ptr %14, align 4
  br label %20, !llvm.loop !108

44:                                               ; preds = %20
  %45 = load ptr, ptr %13, align 8
  store ptr %45, ptr %6, align 8
  br label %46

46:                                               ; preds = %44, %39
  %47 = load ptr, ptr %6, align 8
  ret ptr %47
}