; Function Attrs: nounwind uwtable
define ptr @Acb_FindSupportMin(ptr noundef %0, i32 noundef %1, ptr noundef readonly captures(none) %2, ptr noundef captures(none) %3, ptr noundef readonly captures(none) %4) local_unnamed_addr #0 {
  %6 = tail call noalias dereferenceable_or_null(16) ptr @malloc(i64 noundef 16) #29
  %7 = getelementptr inbounds nuw i8, ptr %4, i64 4
  %8 = load i32, ptr %7, align 4
  %9 = getelementptr inbounds nuw i8, ptr %6, i64 4
  store i32 %8, ptr %9, align 4
  store i32 %8, ptr %6, align 8
  %.not.i = icmp eq i32 %8, 0
  br i1 %.not.i, label %Vec_IntDup.exit, label %10

10:                                               ; preds = %5
  %11 = sext i32 %8 to i64
  %12 = shl nsw i64 %11, 2
  %13 = tail call noalias ptr @malloc(i64 noundef %12) #29
  br label %Vec_IntDup.exit

Vec_IntDup.exit:                                  ; preds = %5, %10
  %.pre-phi12.i = phi i64 [ %12, %10 ], [ 0, %5 ]
  %14 = phi ptr [ %13, %10 ], [ null, %5 ]
  %15 = getelementptr inbounds nuw i8, ptr %6, i64 8
  store ptr %14, ptr %15, align 8
  %16 = getelementptr inbounds nuw i8, ptr %4, i64 8
  %17 = load ptr, ptr %16, align 8
  tail call void @llvm.memcpy.p0.p0.i64(ptr align 4 %14, ptr align 4 %17, i64 %.pre-phi12.i, i1 false)
  br label %18

18:                                               ; preds = %26, %Vec_IntDup.exit
  %.015 = phi ptr [ %6, %Vec_IntDup.exit ], [ %21, %26 ]
  %.0.in = phi i32 [ %8, %Vec_IntDup.exit ], [ %.0, %26 ]
  %.0 = add nsw i32 %.0.in, -1
  %19 = icmp sgt i32 %.0.in, 0
  br i1 %19, label %20, label %28

20:                                               ; preds = %18
  %21 = tail call ptr @Acb_FindSupportMinOne(ptr noundef %0, i32 noundef %1, ptr noundef %2, ptr noundef %3, ptr noundef nonnull %.015, i32 noundef %.0)
  %.not = icmp eq ptr %.015, %21
  br i1 %.not, label %26, label %22

22:                                               ; preds = %20
  %23 = getelementptr inbounds nuw i8, ptr %.015, i64 8
  %24 = load ptr, ptr %23, align 8
  %.not.i18 = icmp eq ptr %24, null
  br i1 %.not.i18, label %Vec_IntFree.exit, label %25

25:                                               ; preds = %22
  tail call void @free(ptr noundef nonnull %24) #31
  br label %Vec_IntFree.exit

Vec_IntFree.exit:                                 ; preds = %22, %25
  tail call void @free(ptr noundef nonnull %.015) #31
  br label %26

26:                                               ; preds = %Vec_IntFree.exit, %20
  %27 = icmp eq ptr %21, null
  br i1 %27, label %28, label %18, !llvm.loop !104

28:                                               ; preds = %18, %26
  %.016 = phi ptr [ null, %26 ], [ %.015, %18 ]
  ret ptr %.016
}